target datalayout = "e-m:e-p270:32:32-p271:32:32-p272:64:64-i64:64-i128:128-f80:128-n8:16:32:64-S128"
target triple = "x86_64-pc-linux-gnu"

%struct.eth_phdr = type { i32 }

@hf_eth_trailer = internal global i32 0, align 4
@eth_trailer_length = internal global i32 0, align 4
@eth_fcs = internal global i32 -1, align 4
@eth_deduplicate_dmac = internal global i8 0, align 1

; Function Attrs: null_pointer_is_valid sspstrong uwtable
define internal i32 @dissect_eth(ptr noundef %0, ptr noundef %1, ptr noundef %2, ptr noundef %3) #0 {
  %5 = alloca ptr, align 8
  %6 = alloca ptr, align 8
  %7 = alloca ptr, align 8
  %8 = alloca ptr, align 8
  %9 = alloca ptr, align 8
  %10 = alloca ptr, align 8
  %11 = alloca ptr, align 8
  %12 = alloca i32, align 4
  %13 = alloca ptr, align 8
  %14 = alloca i32, align 4
  store ptr %0, ptr %5, align 8
  store ptr %1, ptr %6, align 8
  store ptr %2, ptr %7, align 8
  store ptr %3, ptr %8, align 8
  call void @llvm.lifetime.start.p0(i64 8, ptr %9) #10
  %15 = load ptr, ptr %8, align 8
  store ptr %15, ptr %9, align 8
  call void @llvm.lifetime.start.p0(i64 8, ptr %10) #10
  call void @llvm.lifetime.start.p0(i64 8, ptr %11) #10
  call void @llvm.lifetime.start.p0(i64 4, ptr %12) #10
  %16 = load ptr, ptr %9, align 8
  %17 = icmp ne ptr %16, null
  br i1 %17, label %18, label %27

18:                                               ; preds = %4
  %19 = load ptr, ptr %9, align 8
  %20 = getelementptr inbounds nuw %struct.eth_phdr, ptr %19, i32 0, i32 0
  %21 = load i32, ptr %20, align 4
  %22 = icmp ne i32 %21, -1
  br i1 %22, label %23, label %27

23:                                               ; preds = %18
  %24 = load ptr, ptr %9, align 8
  %25 = getelementptr inbounds nuw %struct.eth_phdr, ptr %24, i32 0, i32 0
  %26 = load i32, ptr %25, align 4
  store i32 %26, ptr %12, align 4
  br label %29

27:                                               ; preds = %18, %4
  %28 = load i32, ptr @eth_fcs, align 4
  store i32 %28, ptr %12, align 4
  br label %29

29:                                               ; preds = %27, %23
  %30 = load i8, ptr @eth_deduplicate_dmac, align 1, !range !6, !noundef !7
  %31 = trunc i8 %30 to i1
  br i1 %31, label %32, label %52

32:                                               ; preds = %29
  %33 = load ptr, ptr %5, align 8
  %34 = call i32 @tvb_captured_length(ptr noundef %33)
  %35 = icmp ugt i32 %34, 20
  br i1 %35, label %36, label %52

36:                                               ; preds = %32
  %37 = load ptr, ptr %5, align 8
  %38 = call ptr @tvb_get_ptr(ptr noundef %37, i32 noundef 0, i32 noundef 6)
  %39 = load ptr, ptr %5, align 8
  %40 = call ptr @tvb_get_ptr(ptr noundef %39, i32 noundef 6, i32 noundef 6)
  %41 = call i32 @memcmp(ptr noundef %38, ptr noundef %40, i64 noundef 6) #12
  %42 = icmp eq i32 %41, 0
  br i1 %42, label %43, label %52

43:                                               ; preds = %36
  %44 = load ptr, ptr %5, align 8
  %45 = load ptr, ptr %5, align 8
  %46 = call i32 @tvb_captured_length(ptr noundef %45)
  %47 = sub i32 %46, 6
  %48 = load ptr, ptr %5, align 8
  %49 = call i32 @tvb_reported_length(ptr noundef %48)
  %50 = sub i32 %49, 6
  %51 = call ptr @tvb_new_subset_length_caplen(ptr noundef %44, i32 noundef 6, i32 noundef %47, i32 noundef %50)
  store ptr %51, ptr %11, align 8
  br label %54

52:                                               ; preds = %36, %32, %29
  %53 = load ptr, ptr %5, align 8
  store ptr %53, ptr %11, align 8
  br label %54

54:                                               ; preds = %52, %43
  %55 = load i32, ptr @eth_trailer_length, align 4
  %56 = icmp ugt i32 %55, 0
  br i1 %56, label %57, label %100

57:                                               ; preds = %54
  %58 = load i32, ptr @eth_trailer_length, align 4
  %59 = load ptr, ptr %11, align 8
  %60 = call i32 @tvb_captured_length(ptr noundef %59)
  %61 = icmp ult i32 %58, %60
  br i1 %61, label %62, label %100

62:                                               ; preds = %57
  call void @llvm.lifetime.start.p0(i64 8, ptr %13) #10
  call void @llvm.lifetime.start.p0(i64 4, ptr %14) #10
  %63 = load i32, ptr @eth_trailer_length, align 4
  store i32 %63, ptr %14, align 4
  %64 = load i32, ptr %12, align 4
  %65 = icmp slt i32 %64, 0
  br i1 %65, label %66, label %67

66:                                               ; preds = %62
  br label %69

67:                                               ; preds = %62
  %68 = load i32, ptr %12, align 4
  br label %69

69:                                               ; preds = %67, %66
  %70 = phi i32 [ 0, %66 ], [ %68, %67 ]
  %71 = load i32, ptr %14, align 4
  %72 = add i32 %71, %70
  store i32 %72, ptr %14, align 4
  %73 = load ptr, ptr %11, align 8
  %74 = load ptr, ptr %11, align 8
  %75 = call i32 @tvb_captured_length(ptr noundef %74)
  %76 = load i32, ptr %14, align 4
  %77 = sub i32 %75, %76
  %78 = load ptr, ptr %11, align 8
  %79 = call i32 @tvb_reported_length(ptr noundef %78)
  %80 = load i32, ptr %14, align 4
  %81 = sub i32 %79, %80
  %82 = call ptr @tvb_new_subset_length_caplen(ptr noundef %73, i32 noundef 0, i32 noundef %77, i32 noundef %81)
  store ptr %82, ptr %13, align 8
  %83 = load ptr, ptr %13, align 8
  %84 = load ptr, ptr %6, align 8
  %85 = load ptr, ptr %7, align 8
  %86 = call ptr @dissect_eth_common(ptr noundef %83, ptr noundef %84, ptr noundef %85, i32 noundef 0)
  store ptr %86, ptr %10, align 8
  %87 = load ptr, ptr %11, align 8
  %88 = load ptr, ptr %11, align 8
  %89 = call i32 @tvb_captured_length(ptr noundef %88)
  %90 = load i32, ptr %14, align 4
  %91 = sub i32 %89, %90
  %92 = call ptr @tvb_new_subset_remaining(ptr noundef %87, i32 noundef %91)
  store ptr %92, ptr %13, align 8
  %93 = load ptr, ptr %6, align 8
  %94 = load ptr, ptr %7, align 8
  %95 = load ptr, ptr %10, align 8
  %96 = load i32, ptr @hf_eth_trailer, align 4
  %97 = load ptr, ptr %11, align 8
  %98 = load ptr, ptr %13, align 8
  %99 = load i32, ptr %12, align 4
  call void @add_ethernet_trailer(ptr noundef %93, ptr noundef %94, ptr noundef %95, i32 noundef %96, ptr noundef %97, ptr noundef %98, i32 noundef %99, i32 noundef 14)
  call void @llvm.lifetime.end.p0(i64 4, ptr %14) #10
  call void @llvm.lifetime.end.p0(i64 8, ptr %13) #10
  br label %106

100:                                              ; preds = %57, %54
  %101 = load ptr, ptr %11, align 8
  %102 = load ptr, ptr %6, align 8
  %103 = load ptr, ptr %7, align 8
  %104 = load i32, ptr %12, align 4
  %105 = call ptr @dissect_eth_common(ptr noundef %101, ptr noundef %102, ptr noundef %103, i32 noundef %104)
  br label %106

106:                                              ; preds = %100, %69
  %107 = load ptr, ptr %5, align 8
  %108 = call i32 @tvb_captured_length(ptr noundef %107)
  call void @llvm.lifetime.end.p0(i64 4, ptr %12) #10
  call void @llvm.lifetime.end.p0(i64 8, ptr %11) #10
  call void @llvm.lifetime.end.p0(i64 8, ptr %10) #10
  call void @llvm.lifetime.end.p0(i64 8, ptr %9) #10
  ret i32 %108
}