; Function Attrs: null_pointer_is_valid sspstrong uwtable
define internal i32 @dissect_eth(ptr noundef %0, ptr noundef initializes((112, 160), (208, 256)) %1, ptr noundef %2, ptr noundef readonly captures(address_is_null) %3) #0 {
  %.not = icmp eq ptr %3, null
  br i1 %.not, label %7, label %5

5:                                                ; preds = %4
  %6 = load i32, ptr %3, align 4
  %.not40 = icmp eq i32 %6, -1
  br i1 %.not40, label %7, label %9

7:                                                ; preds = %5, %4
  %8 = load i32, ptr @eth_fcs, align 4
  br label %9

9:                                                ; preds = %5, %7
  %.036 = phi i32 [ %8, %7 ], [ %6, %5 ]
  %10 = load i8, ptr @eth_deduplicate_dmac, align 1, !range !8, !noundef !9
  %11 = trunc nuw i8 %10 to i1
  br i1 %11, label %12, label %25

12:                                               ; preds = %9
  %13 = tail call i32 @tvb_captured_length(ptr noundef %0)
  %14 = icmp ugt i32 %13, 20
  br i1 %14, label %15, label %25

15:                                               ; preds = %12
  %16 = tail call ptr @tvb_get_ptr(ptr noundef %0, i32 noundef 0, i32 noundef 6)
  %17 = tail call ptr @tvb_get_ptr(ptr noundef %0, i32 noundef 6, i32 noundef 6)
  %bcmp = tail call i32 @bcmp(ptr noundef dereferenceable(6) %16, ptr noundef dereferenceable(6) %17, i64 6)
  %18 = icmp eq i32 %bcmp, 0
  br i1 %18, label %19, label %25

19:                                               ; preds = %15
  %20 = tail call i32 @tvb_captured_length(ptr noundef %0)
  %21 = add i32 %20, -6
  %22 = tail call i32 @tvb_reported_length(ptr noundef %0)
  %23 = add i32 %22, -6
  %24 = tail call ptr @tvb_new_subset_length_caplen(ptr noundef %0, i32 noundef 6, i32 noundef %21, i32 noundef %23)
  br label %25

25:                                               ; preds = %9, %12, %15, %19
  %.0 = phi ptr [ %24, %19 ], [ %0, %15 ], [ %0, %12 ], [ %0, %9 ]
  %26 = load i32, ptr @eth_trailer_length, align 4
  %.not41 = icmp eq i32 %26, 0
  br i1 %.not41, label %44, label %27

27:                                               ; preds = %25
  %28 = tail call i32 @tvb_captured_length(ptr noundef %.0)
  %29 = icmp ult i32 %26, %28
  br i1 %29, label %30, label %44

30:                                               ; preds = %27
  %31 = load i32, ptr @eth_trailer_length, align 4
  %32 = tail call i32 @llvm.smax.i32(i32 %.036, i32 0)
  %33 = add i32 %31, %32
  %34 = tail call i32 @tvb_captured_length(ptr noundef %.0)
  %35 = sub i32 %34, %33
  %36 = tail call i32 @tvb_reported_length(ptr noundef %.0)
  %37 = sub i32 %36, %33
  %38 = tail call ptr @tvb_new_subset_length_caplen(ptr noundef %.0, i32 noundef 0, i32 noundef %35, i32 noundef %37)
  %39 = tail call fastcc ptr @dissect_eth_common(ptr noundef %38, ptr noundef %1, ptr noundef %2, i32 noundef 0)
  %40 = tail call i32 @tvb_captured_length(ptr noundef %.0)
  %41 = sub i32 %40, %33
  %42 = tail call ptr @tvb_new_subset_remaining(ptr noundef %.0, i32 noundef %41)
  %43 = load i32, ptr @hf_eth_trailer, align 4
  tail call void @add_ethernet_trailer(ptr noundef %1, ptr noundef %2, ptr noundef %39, i32 noundef %43, ptr noundef %.0, ptr noundef %42, i32 noundef %.036, i32 noundef 14)
  br label %46

44:                                               ; preds = %27, %25
  %45 = tail call fastcc ptr @dissect_eth_common(ptr noundef %.0, ptr noundef %1, ptr noundef %2, i32 noundef %.036)
  br label %46

46:                                               ; preds = %44, %30
  %47 = tail call i32 @tvb_captured_length(ptr noundef %0)
  ret i32 %47
}